target datalayout = "e-m:e-p270:32:32-p271:32:32-p272:64:64-i64:64-i128:128-f80:128-n8:16:32:64-S128"
target triple = "x86_64-pc-linux-gnu"

@video_sync_method = global i32 -1, align 4
@.str.12 = private unnamed_addr constant [4 x i8] c"cfr\00", align 1
@.str.13 = private unnamed_addr constant [4 x i8] c"vfr\00", align 1
@.str.14 = private unnamed_addr constant [12 x i8] c"passthrough\00", align 1
@.str.15 = private unnamed_addr constant [5 x i8] c"drop\00", align 1
@.str.16 = private unnamed_addr constant [36 x i8] c"-vsync/fps_mode drop is deprecated\0A\00", align 1
@.str.17 = private unnamed_addr constant [5 x i8] c"auto\00", align 1
@.str.18 = private unnamed_addr constant [52 x i8] c"Invalid value %s specified for fps_mode of #%d:%d.\0A\00", align 1
@.str.19 = private unnamed_addr constant [6 x i8] c"vsync\00", align 1
@.str.20 = private unnamed_addr constant [93 x i8] c"Passing a number to -vsync is deprecated, use a string argument as described in the manual.\0A\00", align 1

; Function Attrs: nounwind uwtable
define i32 @parse_and_set_vsync(ptr noundef %0, ptr noundef %1, i32 noundef %2, i32 noundef %3, i32 noundef %4) #0 {
  %6 = alloca i32, align 4
  %7 = alloca ptr, align 8
  %8 = alloca ptr, align 8
  %9 = alloca i32, align 4
  %10 = alloca i32, align 4
  %11 = alloca i32, align 4
  %12 = alloca i32, align 4
  %13 = alloca double, align 8
  %14 = alloca i32, align 4
  store ptr %0, ptr %7, align 8, !tbaa !23
  store ptr %1, ptr %8, align 8, !tbaa !52
  store i32 %2, ptr %9, align 4, !tbaa !16
  store i32 %3, ptr %10, align 4, !tbaa !16
  store i32 %4, ptr %11, align 4, !tbaa !16
  %15 = load ptr, ptr %7, align 8, !tbaa !23
  %16 = call i32 @av_strcasecmp(ptr noundef %15, ptr noundef @.str.12)
  %17 = icmp ne i32 %16, 0
  br i1 %17, label %20, label %18

18:                                               ; preds = %5
  %19 = load ptr, ptr %8, align 8, !tbaa !52
  store i32 1, ptr %19, align 4, !tbaa !16
  br label %59

20:                                               ; preds = %5
  %21 = load ptr, ptr %7, align 8, !tbaa !23
  %22 = call i32 @av_strcasecmp(ptr noundef %21, ptr noundef @.str.13)
  %23 = icmp ne i32 %22, 0
  br i1 %23, label %26, label %24

24:                                               ; preds = %20
  %25 = load ptr, ptr %8, align 8, !tbaa !52
  store i32 2, ptr %25, align 4, !tbaa !16
  br label %58

26:                                               ; preds = %20
  %27 = load ptr, ptr %7, align 8, !tbaa !23
  %28 = call i32 @av_strcasecmp(ptr noundef %27, ptr noundef @.str.14)
  %29 = icmp ne i32 %28, 0
  br i1 %29, label %32, label %30

30:                                               ; preds = %26
  %31 = load ptr, ptr %8, align 8, !tbaa !52
  store i32 0, ptr %31, align 4, !tbaa !16
  br label %57

32:                                               ; preds = %26
  %33 = load ptr, ptr %7, align 8, !tbaa !23
  %34 = call i32 @av_strcasecmp(ptr noundef %33, ptr noundef @.str.15)
  %35 = icmp ne i32 %34, 0
  br i1 %35, label %38, label %36

36:                                               ; preds = %32
  call void (ptr, i32, ptr, ...) @av_log(ptr noundef null, i32 noundef 24, ptr noundef @.str.16)
  %37 = load ptr, ptr %8, align 8, !tbaa !52
  store i32 4, ptr %37, align 4, !tbaa !16
  br label %56

38:                                               ; preds = %32
  %39 = load i32, ptr %11, align 4, !tbaa !16
  %40 = icmp ne i32 %39, 0
  br i1 %40, label %47, label %41

41:                                               ; preds = %38
  %42 = load ptr, ptr %7, align 8, !tbaa !23
  %43 = call i32 @av_strcasecmp(ptr noundef %42, ptr noundef @.str.17)
  %44 = icmp ne i32 %43, 0
  br i1 %44, label %47, label %45

45:                                               ; preds = %41
  %46 = load ptr, ptr %8, align 8, !tbaa !52
  store i32 -1, ptr %46, align 4, !tbaa !16
  br label %55

47:                                               ; preds = %41, %38
  %48 = load i32, ptr %11, align 4, !tbaa !16
  %49 = icmp ne i32 %48, 0
  br i1 %49, label %54, label %50

50:                                               ; preds = %47
  %51 = load ptr, ptr %7, align 8, !tbaa !23
  %52 = load i32, ptr %9, align 4, !tbaa !16
  %53 = load i32, ptr %10, align 4, !tbaa !16
  call void (ptr, i32, ptr, ...) @av_log(ptr noundef null, i32 noundef 8, ptr noundef @.str.18, ptr noundef %51, i32 noundef %52, i32 noundef %53)
  store i32 -22, ptr %6, align 4
  br label %80

54:                                               ; preds = %47
  br label %55

55:                                               ; preds = %54, %45
  br label %56

56:                                               ; preds = %55, %36
  br label %57

57:                                               ; preds = %56, %30
  br label %58

58:                                               ; preds = %57, %24
  br label %59

59:                                               ; preds = %58, %18
  %60 = load i32, ptr %11, align 4, !tbaa !16
  %61 = icmp ne i32 %60, 0
  br i1 %61, label %62, label %79

62:                                               ; preds = %59
  %63 = load ptr, ptr %8, align 8, !tbaa !52
  %64 = load i32, ptr %63, align 4, !tbaa !16
  %65 = icmp eq i32 %64, -1
  br i1 %65, label %66, label %79

66:                                               ; preds = %62
  call void @llvm.lifetime.start.p0(i64 4, ptr %12) #12
  call void @llvm.lifetime.start.p0(i64 8, ptr %13) #12
  %67 = load ptr, ptr %7, align 8, !tbaa !23
  %68 = call i32 @parse_number(ptr noundef @.str.19, ptr noundef %67, i32 noundef 3, double noundef -1.000000e+00, double noundef 2.000000e+00, ptr noundef %13)
  store i32 %68, ptr %12, align 4, !tbaa !16
  %69 = load i32, ptr %12, align 4, !tbaa !16
  %70 = icmp slt i32 %69, 0
  br i1 %70, label %71, label %73

71:                                               ; preds = %66
  %72 = load i32, ptr %12, align 4, !tbaa !16
  store i32 %72, ptr %6, align 4
  store i32 1, ptr %14, align 4
  br label %76

73:                                               ; preds = %66
  %74 = load double, ptr %13, align 8, !tbaa !59
  %75 = fptosi double %74 to i32
  store i32 %75, ptr @video_sync_method, align 4, !tbaa !16
  call void (ptr, i32, ptr, ...) @av_log(ptr noundef null, i32 noundef 24, ptr noundef @.str.20)
  store i32 0, ptr %14, align 4
  br label %76

76:                                               ; preds = %73, %71
  call void @llvm.lifetime.end.p0(i64 8, ptr %13) #12
  call void @llvm.lifetime.end.p0(i64 4, ptr %12) #12
  %77 = load i32, ptr %14, align 4
  switch i32 %77, label %82 [
    i32 0, label %78
    i32 1, label %80
  ]

78:                                               ; preds = %76
  br label %79

79:                                               ; preds = %78, %62, %59
  store i32 0, ptr %6, align 4
  br label %80

80:                                               ; preds = %79, %76, %50
  %81 = load i32, ptr %6, align 4
  ret i32 %81

82:                                               ; preds = %76
  unreachable
}