; Function Attrs: nounwind uwtable
define range(i32 -2147483648, 1) i32 @parse_and_set_vsync(ptr noundef %0, ptr noundef captures(none) %1, i32 noundef %2, i32 noundef %3, i32 noundef %4) local_unnamed_addr #0 {
  %6 = alloca double, align 8
  %7 = tail call i32 @av_strcasecmp(ptr noundef %0, ptr noundef nonnull @.str.12) #15
  %.not = icmp eq i32 %7, 0
  br i1 %.not, label %.critedge, label %8

8:                                                ; preds = %5
  %9 = tail call i32 @av_strcasecmp(ptr noundef %0, ptr noundef nonnull @.str.13) #15
  %.not22 = icmp eq i32 %9, 0
  br i1 %.not22, label %.critedge, label %10

10:                                               ; preds = %8
  %11 = tail call i32 @av_strcasecmp(ptr noundef %0, ptr noundef nonnull @.str.14) #15
  %.not23 = icmp eq i32 %11, 0
  br i1 %.not23, label %.critedge, label %12

12:                                               ; preds = %10
  %13 = tail call i32 @av_strcasecmp(ptr noundef %0, ptr noundef nonnull @.str.15) #15
  %.not24 = icmp eq i32 %13, 0
  br i1 %.not24, label %14, label %15

14:                                               ; preds = %12
  tail call void (ptr, i32, ptr, ...) @av_log(ptr noundef null, i32 noundef 24, ptr noundef nonnull @.str.16) #15
  br label %.critedge

15:                                               ; preds = %12
  %.not25 = icmp eq i32 %4, 0
  br i1 %.not25, label %16, label %.critedge.thread29

16:                                               ; preds = %15
  %17 = tail call i32 @av_strcasecmp(ptr noundef %0, ptr noundef nonnull @.str.17) #15
  %.not26 = icmp eq i32 %17, 0
  br i1 %.not26, label %.critedge.thread, label %18

.critedge.thread:                                 ; preds = %16
  store i32 -1, ptr %1, align 4, !tbaa !38
  br label %.critedge.thread29.thread

18:                                               ; preds = %16
  tail call void (ptr, i32, ptr, ...) @av_log(ptr noundef null, i32 noundef 8, ptr noundef nonnull @.str.18, ptr noundef %0, i32 noundef %2, i32 noundef %3) #15
  br label %.critedge.thread29.thread

.critedge:                                        ; preds = %10, %8, %5, %14
  %.sink = phi i32 [ 4, %14 ], [ 1, %5 ], [ 2, %8 ], [ 0, %10 ]
  store i32 %.sink, ptr %1, align 4, !tbaa !38
  br label %.critedge.thread29.thread

.critedge.thread29:                               ; preds = %15
  %.pre = load i32, ptr %1, align 4, !tbaa !38
  %19 = icmp eq i32 %.pre, -1
  br i1 %19, label %20, label %.critedge.thread29.thread

20:                                               ; preds = %.critedge.thread29
  call void @llvm.lifetime.start.p0(i64 8, ptr nonnull %6) #15
  %21 = call i32 @parse_number(ptr noundef nonnull @.str.19, ptr noundef %0, i32 noundef 3, double noundef -1.000000e+00, double noundef 2.000000e+00, ptr noundef nonnull %6) #15
  %22 = icmp slt i32 %21, 0
  br i1 %22, label %25, label %.thread

.thread:                                          ; preds = %20
  %23 = load double, ptr %6, align 8, !tbaa !40
  %24 = fptosi double %23 to i32
  store i32 %24, ptr @video_sync_method, align 4, !tbaa !38
  call void (ptr, i32, ptr, ...) @av_log(ptr noundef null, i32 noundef 24, ptr noundef nonnull @.str.20) #15
  call void @llvm.lifetime.end.p0(i64 8, ptr nonnull %6) #15
  br label %.critedge.thread29.thread

25:                                               ; preds = %20
  call void @llvm.lifetime.end.p0(i64 8, ptr nonnull %6) #15
  br label %.critedge.thread29.thread

.critedge.thread29.thread:                        ; preds = %.critedge, %.critedge.thread29, %.critedge.thread, %.thread, %25, %18
  %.021 = phi i32 [ %21, %25 ], [ -22, %18 ], [ 0, %.thread ], [ 0, %.critedge.thread ], [ 0, %.critedge.thread29 ], [ 0, %.critedge ]
  ret i32 %.021
}